target datalayout = "e-m:e-p270:32:32-p271:32:32-p272:64:64-i64:64-i128:128-f80:128-n8:16:32:64-S128"
target triple = "x86_64-pc-linux-gnu"

; Function Attrs: mustprogress nounwind uwtable
define noundef i64 @_ZN6icu_7710util64_powEjt(i32 noundef %0, i16 noundef zeroext %1) #6 {
  %3 = alloca i64, align 8
  %4 = alloca i32, align 4
  %5 = alloca i16, align 2
  %6 = alloca i64, align 8
  %7 = alloca i64, align 8
  store i32 %0, ptr %4, align 4, !tbaa !12
  store i16 %1, ptr %5, align 2, !tbaa !94
  %8 = load i32, ptr %4, align 4, !tbaa !12
  %9 = icmp eq i32 %8, 0
  br i1 %9, label %10, label %11

10:                                               ; preds = %2
  store i64 0, ptr %3, align 8
  br label %39

11:                                               ; preds = %2
  call void @llvm.lifetime.start.p0(i64 8, ptr %6) #12
  store i64 1, ptr %6, align 8, !tbaa !52
  call void @llvm.lifetime.start.p0(i64 8, ptr %7) #12
  %12 = load i32, ptr %4, align 4, !tbaa !12
  %13 = zext i32 %12 to i64
  store i64 %13, ptr %7, align 8, !tbaa !52
  br label %14

14:                                               ; preds = %33, %11
  br label %15

15:                                               ; preds = %14
  %16 = load i16, ptr %5, align 2, !tbaa !94
  %17 = zext i16 %16 to i32
  %18 = and i32 %17, 1
  %19 = icmp eq i32 %18, 1
  br i1 %19, label %20, label %24

20:                                               ; preds = %15
  %21 = load i64, ptr %7, align 8, !tbaa !52
  %22 = load i64, ptr %6, align 8, !tbaa !52
  %23 = mul i64 %22, %21
  store i64 %23, ptr %6, align 8, !tbaa !52
  br label %24

24:                                               ; preds = %20, %15
  %25 = load i16, ptr %5, align 2, !tbaa !94
  %26 = zext i16 %25 to i32
  %27 = ashr i32 %26, 1
  %28 = trunc i32 %27 to i16
  store i16 %28, ptr %5, align 2, !tbaa !94
  %29 = load i16, ptr %5, align 2, !tbaa !94
  %30 = zext i16 %29 to i32
  %31 = icmp eq i32 %30, 0
  br i1 %31, label %32, label %33

32:                                               ; preds = %24
  br label %37

33:                                               ; preds = %24
  %34 = load i64, ptr %7, align 8, !tbaa !52
  %35 = load i64, ptr %7, align 8, !tbaa !52
  %36 = mul i64 %35, %34
  store i64 %36, ptr %7, align 8, !tbaa !52
  br label %14, !llvm.loop !95

37:                                               ; preds = %32
  %38 = load i64, ptr %6, align 8, !tbaa !52
  store i64 %38, ptr %3, align 8
  call void @llvm.lifetime.end.p0(i64 8, ptr %7) #12
  call void @llvm.lifetime.end.p0(i64 8, ptr %6) #12
  br label %39

39:                                               ; preds = %37, %10
  %40 = load i64, ptr %3, align 8
  ret i64 %40
}